target datalayout = "e-m:e-p270:32:32-p271:32:32-p272:64:64-i64:64-i128:128-f80:128-n8:16:32:64-S128"
target triple = "x86_64-pc-linux-gnu"

%struct.strbuf = type { i64, i64, ptr }

; Function Attrs: nounwind uwtable
define internal i32 @crud(i8 noundef zeroext %0) #0 {
  %2 = alloca i8, align 1
  store i8 %0, ptr %2, align 1, !tbaa !21
  %3 = load i8, ptr %2, align 1, !tbaa !21
  %4 = zext i8 %3 to i32
  %5 = icmp sle i32 %4, 32
  br i1 %5, label %38, label %6

6:                                                ; preds = %1
  %7 = load i8, ptr %2, align 1, !tbaa !21
  %8 = zext i8 %7 to i32
  %9 = icmp eq i32 %8, 44
  br i1 %9, label %38, label %10

10:                                               ; preds = %6
  %11 = load i8, ptr %2, align 1, !tbaa !21
  %12 = zext i8 %11 to i32
  %13 = icmp eq i32 %12, 58
  br i1 %13, label %38, label %14

14:                                               ; preds = %10
  %15 = load i8, ptr %2, align 1, !tbaa !21
  %16 = zext i8 %15 to i32
  %17 = icmp eq i32 %16, 59
  br i1 %17, label %38, label %18

18:                                               ; preds = %14
  %19 = load i8, ptr %2, align 1, !tbaa !21
  %20 = zext i8 %19 to i32
  %21 = icmp eq i32 %20, 60
  br i1 %21, label %38, label %22

22:                                               ; preds = %18
  %23 = load i8, ptr %2, align 1, !tbaa !21
  %24 = zext i8 %23 to i32
  %25 = icmp eq i32 %24, 62
  br i1 %25, label %38, label %26

26:                                               ; preds = %22
  %27 = load i8, ptr %2, align 1, !tbaa !21
  %28 = zext i8 %27 to i32
  %29 = icmp eq i32 %28, 34
  br i1 %29, label %38, label %30

30:                                               ; preds = %26
  %31 = load i8, ptr %2, align 1, !tbaa !21
  %32 = zext i8 %31 to i32
  %33 = icmp eq i32 %32, 92
  br i1 %33, label %38, label %34

34:                                               ; preds = %30
  %35 = load i8, ptr %2, align 1, !tbaa !21
  %36 = zext i8 %35 to i32
  %37 = icmp eq i32 %36, 39
  br label %38

38:                                               ; preds = %34, %30, %26, %22, %18, %14, %10, %6, %1
  %39 = phi i1 [ true, %30 ], [ true, %26 ], [ true, %22 ], [ true, %18 ], [ true, %14 ], [ true, %10 ], [ true, %6 ], [ true, %1 ], [ %37, %34 ]
  %40 = zext i1 %39 to i32
  ret i32 %40
}

; Function Attrs: nounwind uwtable
define internal void @strbuf_addstr_without_crud(ptr noundef %0, ptr noundef %1) #0 {
  %3 = alloca ptr, align 8
  %4 = alloca ptr, align 8
  %5 = alloca i64, align 8
  %6 = alloca i64, align 8
  %7 = alloca i8, align 1
  store ptr %0, ptr %3, align 8, !tbaa !16
  store ptr %1, ptr %4, align 8, !tbaa !20
  call void @llvm.lifetime.start.p0(i64 8, ptr %5) #10
  call void @llvm.lifetime.start.p0(i64 8, ptr %6) #10
  call void @llvm.lifetime.start.p0(i64 1, ptr %7) #10
  br label %8

8:                                                ; preds = %18, %2
  %9 = load ptr, ptr %4, align 8, !tbaa !20
  %10 = load i8, ptr %9, align 1, !tbaa !21
  store i8 %10, ptr %7, align 1, !tbaa !21
  %11 = zext i8 %10 to i32
  %12 = icmp ne i32 %11, 0
  br i1 %12, label %13, label %21

13:                                               ; preds = %8
  %14 = load i8, ptr %7, align 1, !tbaa !21
  %15 = call i32 @crud(i8 noundef zeroext %14)
  %16 = icmp ne i32 %15, 0
  br i1 %16, label %18, label %17

17:                                               ; preds = %13
  br label %21

18:                                               ; preds = %13
  %19 = load ptr, ptr %4, align 8, !tbaa !20
  %20 = getelementptr inbounds nuw i8, ptr %19, i32 1
  store ptr %20, ptr %4, align 8, !tbaa !20
  br label %8, !llvm.loop !55

21:                                               ; preds = %17, %8
  %22 = load ptr, ptr %4, align 8, !tbaa !20
  %23 = call i64 @strlen(ptr noundef %22) #12
  store i64 %23, ptr %6, align 8, !tbaa !27
  br label %24

24:                                               ; preds = %37, %21
  %25 = load i64, ptr %6, align 8, !tbaa !27
  %26 = icmp ugt i64 %25, 0
  br i1 %26, label %27, label %40

27:                                               ; preds = %24
  %28 = load ptr, ptr %4, align 8, !tbaa !20
  %29 = load i64, ptr %6, align 8, !tbaa !27
  %30 = sub i64 %29, 1
  %31 = getelementptr inbounds nuw i8, ptr %28, i64 %30
  %32 = load i8, ptr %31, align 1, !tbaa !21
  store i8 %32, ptr %7, align 1, !tbaa !21
  %33 = load i8, ptr %7, align 1, !tbaa !21
  %34 = call i32 @crud(i8 noundef zeroext %33)
  %35 = icmp ne i32 %34, 0
  br i1 %35, label %37, label %36

36:                                               ; preds = %27
  br label %40

37:                                               ; preds = %27
  %38 = load i64, ptr %6, align 8, !tbaa !27
  %39 = add i64 %38, -1
  store i64 %39, ptr %6, align 8, !tbaa !27
  br label %24, !llvm.loop !56

40:                                               ; preds = %36, %24
  %41 = load ptr, ptr %3, align 8, !tbaa !16
  %42 = load i64, ptr %6, align 8, !tbaa !27
  call void @strbuf_grow(ptr noundef %41, i64 noundef %42)
  store i64 0, ptr %5, align 8, !tbaa !27
  br label %43

43:                                               ; preds = %64, %40
  %44 = load i64, ptr %5, align 8, !tbaa !27
  %45 = load i64, ptr %6, align 8, !tbaa !27
  %46 = icmp ult i64 %44, %45
  br i1 %46, label %47, label %67

47:                                               ; preds = %43
  %48 = load ptr, ptr %4, align 8, !tbaa !20
  %49 = getelementptr inbounds nuw i8, ptr %48, i32 1
  store ptr %49, ptr %4, align 8, !tbaa !20
  %50 = load i8, ptr %48, align 1, !tbaa !21
  store i8 %50, ptr %7, align 1, !tbaa !21
  %51 = load i8, ptr %7, align 1, !tbaa !21
  %52 = zext i8 %51 to i32
  switch i32 %52, label %54 [
    i32 10, label %53
    i32 60, label %53
    i32 62, label %53
  ]

53:                                               ; preds = %47, %47, %47
  br label %64

54:                                               ; preds = %47
  %55 = load i8, ptr %7, align 1, !tbaa !21
  %56 = load ptr, ptr %3, align 8, !tbaa !16
  %57 = getelementptr inbounds nuw %struct.strbuf, ptr %56, i32 0, i32 2
  %58 = load ptr, ptr %57, align 8, !tbaa !13
  %59 = load ptr, ptr %3, align 8, !tbaa !16
  %60 = getelementptr inbounds nuw %struct.strbuf, ptr %59, i32 0, i32 1
  %61 = load i64, ptr %60, align 8, !tbaa !8
  %62 = add i64 %61, 1
  store i64 %62, ptr %60, align 8, !tbaa !8
  %63 = getelementptr inbounds nuw i8, ptr %58, i64 %61
  store i8 %55, ptr %63, align 1, !tbaa !21
  br label %64

64:                                               ; preds = %54, %53
  %65 = load i64, ptr %5, align 8, !tbaa !27
  %66 = add i64 %65, 1
  store i64 %66, ptr %5, align 8, !tbaa !27
  br label %43, !llvm.loop !57

67:                                               ; preds = %43
  %68 = load ptr, ptr %3, align 8, !tbaa !16
  %69 = getelementptr inbounds nuw %struct.strbuf, ptr %68, i32 0, i32 2
  %70 = load ptr, ptr %69, align 8, !tbaa !13
  %71 = load ptr, ptr %3, align 8, !tbaa !16
  %72 = getelementptr inbounds nuw %struct.strbuf, ptr %71, i32 0, i32 1
  %73 = load i64, ptr %72, align 8, !tbaa !8
  %74 = getelementptr inbounds nuw i8, ptr %70, i64 %73
  store i8 0, ptr %74, align 1, !tbaa !21
  call void @llvm.lifetime.end.p0(i64 1, ptr %7) #10
  call void @llvm.lifetime.end.p0(i64 8, ptr %6) #10
  call void @llvm.lifetime.end.p0(i64 8, ptr %5) #10
  ret void
}