; Function Attrs: nounwind uwtable
define internal fastcc void @strbuf_addstr_without_crud(ptr noundef %0, ptr noundef readonly captures(none) %1) unnamed_addr #0 {
  %3 = load i8, ptr %1, align 1, !tbaa !13
  %.not31 = icmp eq i8 %3, 0
  br i1 %.not31, label %switch.early.test.i._crit_edge, label %.lr.ph

.lr.ph:                                           ; preds = %2, %crud.exit.thread
  %4 = phi i8 [ %7, %crud.exit.thread ], [ %3, %2 ]
  %.02132 = phi ptr [ %6, %crud.exit.thread ], [ %1, %2 ]
  %5 = icmp ult i8 %4, 33
  br i1 %5, label %crud.exit.thread, label %switch.early.test.i

switch.early.test.i:                              ; preds = %.lr.ph
  switch i8 %4, label %switch.early.test.i._crit_edge [
    i8 92, label %crud.exit.thread
    i8 62, label %crud.exit.thread
    i8 60, label %crud.exit.thread
    i8 59, label %crud.exit.thread
    i8 58, label %crud.exit.thread
    i8 44, label %crud.exit.thread
    i8 34, label %crud.exit.thread
    i8 39, label %crud.exit.thread
  ]

crud.exit.thread:                                 ; preds = %switch.early.test.i, %switch.early.test.i, %switch.early.test.i, %switch.early.test.i, %switch.early.test.i, %switch.early.test.i, %switch.early.test.i, %switch.early.test.i, %.lr.ph
  %6 = getelementptr inbounds nuw i8, ptr %.02132, i64 1
  %7 = load i8, ptr %6, align 1, !tbaa !13
  %.not = icmp eq i8 %7, 0
  br i1 %.not, label %switch.early.test.i._crit_edge, label %.lr.ph, !llvm.loop !49

switch.early.test.i._crit_edge:                   ; preds = %crud.exit.thread, %switch.early.test.i, %2
  %.021.lcssa = phi ptr [ %1, %2 ], [ %.02132, %switch.early.test.i ], [ %6, %crud.exit.thread ]
  %8 = tail call i64 @strlen(ptr noundef nonnull dereferenceable(1) %.021.lcssa) #20
  %invariant.gep = getelementptr i8, ptr %.021.lcssa, i64 -1
  %.not2334 = icmp eq i64 %8, 0
  br i1 %.not2334, label %switch.early.test.i25._crit_edge.thread, label %.lr.ph37

.lr.ph37:                                         ; preds = %switch.early.test.i._crit_edge, %crud.exit26.thread
  %.035 = phi i64 [ %11, %crud.exit26.thread ], [ %8, %switch.early.test.i._crit_edge ]
  %gep = getelementptr i8, ptr %invariant.gep, i64 %.035
  %9 = load i8, ptr %gep, align 1, !tbaa !13
  %10 = icmp ult i8 %9, 33
  br i1 %10, label %crud.exit26.thread, label %switch.early.test.i25

switch.early.test.i25:                            ; preds = %.lr.ph37
  switch i8 %9, label %.lr.ph44 [
    i8 92, label %crud.exit26.thread
    i8 62, label %crud.exit26.thread
    i8 60, label %crud.exit26.thread
    i8 59, label %crud.exit26.thread
    i8 58, label %crud.exit26.thread
    i8 44, label %crud.exit26.thread
    i8 34, label %crud.exit26.thread
    i8 39, label %crud.exit26.thread
  ]

crud.exit26.thread:                               ; preds = %switch.early.test.i25, %switch.early.test.i25, %switch.early.test.i25, %switch.early.test.i25, %switch.early.test.i25, %switch.early.test.i25, %switch.early.test.i25, %switch.early.test.i25, %.lr.ph37
  %11 = add i64 %.035, -1
  %.not23 = icmp eq i64 %11, 0
  br i1 %.not23, label %switch.early.test.i25._crit_edge.thread, label %.lr.ph37, !llvm.loop !50

switch.early.test.i25._crit_edge.thread:          ; preds = %crud.exit26.thread, %switch.early.test.i._crit_edge
  tail call void @strbuf_grow(ptr noundef %0, i64 noundef 0) #19
  br label %._crit_edge45

.lr.ph44:                                         ; preds = %switch.early.test.i25
  tail call void @strbuf_grow(ptr noundef %0, i64 noundef %.035) #19
  %12 = getelementptr inbounds nuw i8, ptr %0, i64 16
  %13 = getelementptr inbounds nuw i8, ptr %0, i64 8
  br label %14

14:                                               ; preds = %.lr.ph44, %22
  %.02042 = phi i64 [ 0, %.lr.ph44 ], [ %23, %22 ]
  %.141 = phi ptr [ %.021.lcssa, %.lr.ph44 ], [ %15, %22 ]
  %15 = getelementptr inbounds nuw i8, ptr %.141, i64 1
  %16 = load i8, ptr %.141, align 1, !tbaa !13
  switch i8 %16, label %17 [
    i8 10, label %22
    i8 60, label %22
    i8 62, label %22
  ]

17:                                               ; preds = %14
  %18 = load ptr, ptr %12, align 8, !tbaa !18
  %19 = load i64, ptr %13, align 8, !tbaa !17
  %20 = add i64 %19, 1
  store i64 %20, ptr %13, align 8, !tbaa !17
  %21 = getelementptr inbounds nuw i8, ptr %18, i64 %19
  store i8 %16, ptr %21, align 1, !tbaa !13
  br label %22

22:                                               ; preds = %14, %14, %14, %17
  %23 = add nuw i64 %.02042, 1
  %exitcond.not = icmp eq i64 %23, %.035
  br i1 %exitcond.not, label %._crit_edge45, label %14, !llvm.loop !51

._crit_edge45:                                    ; preds = %22, %switch.early.test.i25._crit_edge.thread
  %24 = getelementptr inbounds nuw i8, ptr %0, i64 16
  %25 = load ptr, ptr %24, align 8, !tbaa !18
  %26 = getelementptr inbounds nuw i8, ptr %0, i64 8
  %27 = load i64, ptr %26, align 8, !tbaa !17
  %28 = getelementptr inbounds nuw i8, ptr %25, i64 %27
  store i8 0, ptr %28, align 1, !tbaa !13
  ret void
}